target datalayout = "e-m:e-p270:32:32-p271:32:32-p272:64:64-i64:64-i128:128-f80:128-n8:16:32:64-S128"
target triple = "x86_64-pc-linux-gnu"

%struct.AVRational = type { i32, i32 }
%struct.InputStream = type { ptr, ptr, i32, ptr, i32, ptr, ptr, ptr, %struct.AVRational, i32, i32, ptr, i32 }
%struct.DemuxStream = type { %struct.InputStream, [32 x i8], i32, i32, double, i32, i32, i32, i32, i32, i32, i32, i32, i32, i32, i32, i64, i64, i64, ptr, ptr, %struct.DecoderOpts, [16 x i8], ptr, ptr, i64, i64, i64, i64, i64 }
%struct.DecoderOpts = type { i32, ptr, ptr, ptr, ptr, i32, i32, ptr, i32, %struct.AVRational, %struct.AVRational }
%struct.Demuxer = type { %struct.InputFile, [32 x i8], i64, i64, i64, i64, i32, i32, i32, %struct.Timestamp, %struct.Timestamp, %struct.Timestamp, i32, float, double, float, ptr, ptr, i32, i32, i32 }
%struct.InputFile = type { ptr, i32, ptr, i64, i32, i64, i64, i64, ptr, i32 }
%struct.Timestamp = type { i64, %struct.AVRational }
%struct.AVPacket = type { ptr, i64, i64, ptr, i32, i32, i32, ptr, i32, i64, i64, ptr, ptr, %struct.AVRational }
%struct.DemuxThreadContext = type { ptr, ptr }
%struct.AVBSFContext = type { ptr, ptr, ptr, ptr, ptr, %struct.AVRational, %struct.AVRational }

@.str.65 = private unnamed_addr constant [30 x i8] c"Assertion %s failed at %s:%d\0A\00", align 1
@.str.66 = private unnamed_addr constant [15 x i8] c"ds->bsf || pkt\00", align 1
@.str.67 = private unnamed_addr constant [23 x i8] c"fftools/ffmpeg_demux.c\00", align 1
@.str.68 = private unnamed_addr constant [10 x i8] c"heartbeat\00", align 1
@.str.69 = private unnamed_addr constant [45 x i8] c"Error submitting a packet for filtering: %s\0A\00", align 1
@.str.70 = private unnamed_addr constant [50 x i8] c"Error applying bitstream filters to a packet: %s\0A\00", align 1
@.str.71 = private unnamed_addr constant [9 x i8] c"filtered\00", align 1
@.str.72 = private unnamed_addr constant [8 x i8] c"demuxed\00", align 1

; Function Attrs: inlinehint nounwind uwtable
define internal ptr @av_make_error_string(ptr noundef %0, i64 noundef %1, i32 noundef %2) #6 {
  %4 = alloca ptr, align 8
  %5 = alloca i64, align 8
  %6 = alloca i32, align 4
  store ptr %0, ptr %4, align 8, !tbaa !180
  store i64 %1, ptr %5, align 8, !tbaa !58
  store i32 %2, ptr %6, align 4, !tbaa !4
  %7 = load i32, ptr %6, align 4, !tbaa !4
  %8 = load ptr, ptr %4, align 8, !tbaa !180
  %9 = load i64, ptr %5, align 8, !tbaa !58
  %10 = call i32 @av_strerror(i32 noundef %7, ptr noundef %8, i64 noundef %9)
  %11 = load ptr, ptr %4, align 8, !tbaa !180
  ret ptr %11
}

; Function Attrs: nounwind uwtable
define internal ptr @ds_from_ist(ptr noundef %0) #0 {
  %2 = alloca ptr, align 8
  store ptr %0, ptr %2, align 8, !tbaa !8
  %3 = load ptr, ptr %2, align 8, !tbaa !8
  ret ptr %3
}

; Function Attrs: nounwind uwtable
define internal i32 @demux_send(ptr noundef %0, ptr noundef %1, ptr noundef %2, ptr noundef %3, i32 noundef %4) #0 {
  %6 = alloca i32, align 4
  %7 = alloca ptr, align 8
  %8 = alloca ptr, align 8
  %9 = alloca ptr, align 8
  %10 = alloca ptr, align 8
  %11 = alloca i32, align 4
  %12 = alloca ptr, align 8
  %13 = alloca i32, align 4
  %14 = alloca i32, align 4
  %15 = alloca i32, align 4
  %16 = alloca ptr, align 8
  %17 = alloca [64 x i8], align 1
  %18 = alloca [64 x i8], align 1
  store ptr %0, ptr %7, align 8, !tbaa !44
  store ptr %1, ptr %8, align 8, !tbaa !334
  store ptr %2, ptr %9, align 8, !tbaa !11
  store ptr %3, ptr %10, align 8, !tbaa !351
  store i32 %4, ptr %11, align 4, !tbaa !4
  call void @llvm.lifetime.start.p0(i64 8, ptr %12) #12
  %19 = load ptr, ptr %7, align 8, !tbaa !44
  %20 = getelementptr inbounds nuw %struct.Demuxer, ptr %19, i32 0, i32 0
  store ptr %20, ptr %12, align 8, !tbaa !43
  call void @llvm.lifetime.start.p0(i64 4, ptr %13) #12
  br label %21

21:                                               ; preds = %5
  %22 = load ptr, ptr %9, align 8, !tbaa !11
  %23 = getelementptr inbounds nuw %struct.DemuxStream, ptr %22, i32 0, i32 24
  %24 = load ptr, ptr %23, align 8, !tbaa !320
  %25 = icmp ne ptr %24, null
  br i1 %25, label %30, label %26

26:                                               ; preds = %21
  %27 = load ptr, ptr %10, align 8, !tbaa !351
  %28 = icmp ne ptr %27, null
  br i1 %28, label %30, label %29

29:                                               ; preds = %26
  call void (ptr, i32, ptr, ...) @av_log(ptr noundef null, i32 noundef 0, ptr noundef @.str.65, ptr noundef @.str.66, ptr noundef @.str.67, i32 noundef 581)
  call void @abort() #14
  unreachable

30:                                               ; preds = %26, %21
  br label %31

31:                                               ; preds = %30
  br label %32

32:                                               ; preds = %31
  %33 = load ptr, ptr %7, align 8, !tbaa !44
  %34 = getelementptr inbounds nuw %struct.Demuxer, ptr %33, i32 0, i32 17
  %35 = load ptr, ptr %34, align 8, !tbaa !158
  %36 = icmp ne ptr %35, null
  br i1 %36, label %37, label %110

37:                                               ; preds = %32
  %38 = load ptr, ptr %10, align 8, !tbaa !351
  %39 = icmp ne ptr %38, null
  br i1 %39, label %40, label %110

40:                                               ; preds = %37
  %41 = load ptr, ptr %10, align 8, !tbaa !351
  %42 = getelementptr inbounds nuw %struct.AVPacket, ptr %41, i32 0, i32 1
  %43 = load i64, ptr %42, align 8, !tbaa !274
  %44 = icmp ne i64 %43, -9223372036854775808
  br i1 %44, label %45, label %110

45:                                               ; preds = %40
  call void @llvm.lifetime.start.p0(i64 4, ptr %14) #12
  store i32 0, ptr %14, align 4, !tbaa !4
  br label %46

46:                                               ; preds = %104, %45
  %47 = load i32, ptr %14, align 4, !tbaa !4
  %48 = load ptr, ptr %12, align 8, !tbaa !43
  %49 = getelementptr inbounds nuw %struct.InputFile, ptr %48, i32 0, i32 9
  %50 = load i32, ptr %49, align 8, !tbaa !55
  %51 = icmp slt i32 %47, %50
  br i1 %51, label %53, label %52

52:                                               ; preds = %46
  store i32 4, ptr %15, align 4
  br label %107

53:                                               ; preds = %46
  call void @llvm.lifetime.start.p0(i64 8, ptr %16) #12
  %54 = load ptr, ptr %12, align 8, !tbaa !43
  %55 = getelementptr inbounds nuw %struct.InputFile, ptr %54, i32 0, i32 8
  %56 = load ptr, ptr %55, align 8, !tbaa !56
  %57 = load i32, ptr %14, align 4, !tbaa !4
  %58 = sext i32 %57 to i64
  %59 = getelementptr inbounds ptr, ptr %56, i64 %58
  %60 = load ptr, ptr %59, align 8, !tbaa !8
  %61 = call ptr @ds_from_ist(ptr noundef %60)
  store ptr %61, ptr %16, align 8, !tbaa !11
  %62 = load ptr, ptr %16, align 8, !tbaa !11
  %63 = getelementptr inbounds nuw %struct.DemuxStream, ptr %62, i32 0, i32 7
  %64 = load i32, ptr %63, align 8, !tbaa !275
  %65 = icmp ne i32 %64, 0
  br i1 %65, label %71, label %66

66:                                               ; preds = %53
  %67 = load ptr, ptr %16, align 8, !tbaa !11
  %68 = getelementptr inbounds nuw %struct.DemuxStream, ptr %67, i32 0, i32 9
  %69 = load i32, ptr %68, align 8, !tbaa !159
  %70 = icmp ne i32 %69, 0
  br i1 %70, label %72, label %71

71:                                               ; preds = %66, %53
  store i32 6, ptr %15, align 4
  br label %101

72:                                               ; preds = %66
  %73 = load ptr, ptr %10, align 8, !tbaa !351
  %74 = getelementptr inbounds nuw %struct.AVPacket, ptr %73, i32 0, i32 1
  %75 = load i64, ptr %74, align 8, !tbaa !274
  %76 = load ptr, ptr %7, align 8, !tbaa !44
  %77 = getelementptr inbounds nuw %struct.Demuxer, ptr %76, i32 0, i32 17
  %78 = load ptr, ptr %77, align 8, !tbaa !158
  %79 = getelementptr inbounds nuw %struct.AVPacket, ptr %78, i32 0, i32 1
  store i64 %75, ptr %79, align 8, !tbaa !274
  %80 = load ptr, ptr %7, align 8, !tbaa !44
  %81 = getelementptr inbounds nuw %struct.Demuxer, ptr %80, i32 0, i32 17
  %82 = load ptr, ptr %81, align 8, !tbaa !158
  %83 = getelementptr inbounds nuw %struct.AVPacket, ptr %82, i32 0, i32 13
  %84 = load ptr, ptr %10, align 8, !tbaa !351
  %85 = getelementptr inbounds nuw %struct.AVPacket, ptr %84, i32 0, i32 13
  call void @llvm.memcpy.p0.p0.i64(ptr align 8 %83, ptr align 8 %85, i64 8, i1 false), !tbaa.struct !110
  %86 = load ptr, ptr %7, align 8, !tbaa !44
  %87 = getelementptr inbounds nuw %struct.Demuxer, ptr %86, i32 0, i32 17
  %88 = load ptr, ptr %87, align 8, !tbaa !158
  %89 = getelementptr inbounds nuw %struct.AVPacket, ptr %88, i32 0, i32 11
  store ptr inttoptr (i64 1 to ptr), ptr %89, align 8, !tbaa !365
  %90 = load ptr, ptr %7, align 8, !tbaa !44
  %91 = load ptr, ptr %16, align 8, !tbaa !11
  %92 = load ptr, ptr %7, align 8, !tbaa !44
  %93 = getelementptr inbounds nuw %struct.Demuxer, ptr %92, i32 0, i32 17
  %94 = load ptr, ptr %93, align 8, !tbaa !158
  %95 = call i32 @do_send(ptr noundef %90, ptr noundef %91, ptr noundef %94, i32 noundef 0, ptr noundef @.str.68)
  store i32 %95, ptr %13, align 4, !tbaa !4
  %96 = load i32, ptr %13, align 4, !tbaa !4
  %97 = icmp slt i32 %96, 0
  br i1 %97, label %98, label %100

98:                                               ; preds = %72
  %99 = load i32, ptr %13, align 4, !tbaa !4
  store i32 %99, ptr %6, align 4
  store i32 1, ptr %15, align 4
  br label %101

100:                                              ; preds = %72
  store i32 0, ptr %15, align 4
  br label %101

101:                                              ; preds = %100, %98, %71
  call void @llvm.lifetime.end.p0(i64 8, ptr %16) #12
  %102 = load i32, ptr %15, align 4
  switch i32 %102, label %107 [
    i32 0, label %103
    i32 6, label %104
  ]

103:                                              ; preds = %101
  br label %104

104:                                              ; preds = %103, %101
  %105 = load i32, ptr %14, align 4, !tbaa !4
  %106 = add nsw i32 %105, 1
  store i32 %106, ptr %14, align 4, !tbaa !4
  br label %46, !llvm.loop !366

107:                                              ; preds = %101, %52
  call void @llvm.lifetime.end.p0(i64 4, ptr %14) #12
  %108 = load i32, ptr %15, align 4
  switch i32 %108, label %209 [
    i32 4, label %109
  ]

109:                                              ; preds = %107
  br label %110

110:                                              ; preds = %109, %40, %37, %32
  %111 = load ptr, ptr %9, align 8, !tbaa !11
  %112 = getelementptr inbounds nuw %struct.DemuxStream, ptr %111, i32 0, i32 24
  %113 = load ptr, ptr %112, align 8, !tbaa !320
  %114 = icmp ne ptr %113, null
  br i1 %114, label %115, label %197

115:                                              ; preds = %110
  %116 = load ptr, ptr %10, align 8, !tbaa !351
  %117 = icmp ne ptr %116, null
  br i1 %117, label %118, label %128

118:                                              ; preds = %115
  %119 = load ptr, ptr %10, align 8, !tbaa !351
  %120 = load ptr, ptr %10, align 8, !tbaa !351
  %121 = getelementptr inbounds nuw %struct.AVPacket, ptr %120, i32 0, i32 13
  %122 = load ptr, ptr %9, align 8, !tbaa !11
  %123 = getelementptr inbounds nuw %struct.DemuxStream, ptr %122, i32 0, i32 24
  %124 = load ptr, ptr %123, align 8, !tbaa !320
  %125 = getelementptr inbounds nuw %struct.AVBSFContext, ptr %124, i32 0, i32 5
  %126 = load i64, ptr %121, align 8
  %127 = load i64, ptr %125, align 8
  call void @av_packet_rescale_ts(ptr noundef %119, i64 %126, i64 %127)
  br label %128

128:                                              ; preds = %118, %115
  %129 = load ptr, ptr %9, align 8, !tbaa !11
  %130 = getelementptr inbounds nuw %struct.DemuxStream, ptr %129, i32 0, i32 24
  %131 = load ptr, ptr %130, align 8, !tbaa !320
  %132 = load ptr, ptr %10, align 8, !tbaa !351
  %133 = call i32 @av_bsf_send_packet(ptr noundef %131, ptr noundef %132)
  store i32 %133, ptr %13, align 4, !tbaa !4
  %134 = load i32, ptr %13, align 4, !tbaa !4
  %135 = icmp slt i32 %134, 0
  br i1 %135, label %136, label %147

136:                                              ; preds = %128
  %137 = load ptr, ptr %10, align 8, !tbaa !351
  %138 = icmp ne ptr %137, null
  br i1 %138, label %139, label %141

139:                                              ; preds = %136
  %140 = load ptr, ptr %10, align 8, !tbaa !351
  call void @av_packet_unref(ptr noundef %140)
  br label %141

141:                                              ; preds = %139, %136
  %142 = load ptr, ptr %9, align 8, !tbaa !11
  call void @llvm.memset.p0.i64(ptr align 1 %17, i8 0, i64 64, i1 false)
  %143 = getelementptr inbounds [64 x i8], ptr %17, i64 0, i64 0
  %144 = load i32, ptr %13, align 4, !tbaa !4
  %145 = call ptr @av_make_error_string(ptr noundef %143, i64 noundef 64, i32 noundef %144)
  call void (ptr, i32, ptr, ...) @av_log(ptr noundef %142, i32 noundef 16, ptr noundef @.str.69, ptr noundef %145)
  %146 = load i32, ptr %13, align 4, !tbaa !4
  store i32 %146, ptr %6, align 4
  store i32 1, ptr %15, align 4
  br label %209

147:                                              ; preds = %128
  br label %148

148:                                              ; preds = %196, %147
  br label %149

149:                                              ; preds = %148
  %150 = load ptr, ptr %9, align 8, !tbaa !11
  %151 = getelementptr inbounds nuw %struct.DemuxStream, ptr %150, i32 0, i32 24
  %152 = load ptr, ptr %151, align 8, !tbaa !320
  %153 = load ptr, ptr %8, align 8, !tbaa !334
  %154 = getelementptr inbounds nuw %struct.DemuxThreadContext, ptr %153, i32 0, i32 1
  %155 = load ptr, ptr %154, align 8, !tbaa !336
  %156 = call i32 @av_bsf_receive_packet(ptr noundef %152, ptr noundef %155)
  store i32 %156, ptr %13, align 4, !tbaa !4
  %157 = load i32, ptr %13, align 4, !tbaa !4
  %158 = icmp eq i32 %157, -11
  br i1 %158, label %159, label %160

159:                                              ; preds = %149
  store i32 0, ptr %6, align 4
  store i32 1, ptr %15, align 4
  br label %209

160:                                              ; preds = %149
  %161 = load i32, ptr %13, align 4, !tbaa !4
  %162 = icmp slt i32 %161, 0
  br i1 %162, label %163, label %173

163:                                              ; preds = %160
  %164 = load i32, ptr %13, align 4, !tbaa !4
  %165 = icmp ne i32 %164, -541478725
  br i1 %165, label %166, label %171

166:                                              ; preds = %163
  %167 = load ptr, ptr %9, align 8, !tbaa !11
  call void @llvm.memset.p0.i64(ptr align 1 %18, i8 0, i64 64, i1 false)
  %168 = getelementptr inbounds [64 x i8], ptr %18, i64 0, i64 0
  %169 = load i32, ptr %13, align 4, !tbaa !4
  %170 = call ptr @av_make_error_string(ptr noundef %168, i64 noundef 64, i32 noundef %169)
  call void (ptr, i32, ptr, ...) @av_log(ptr noundef %167, i32 noundef 16, ptr noundef @.str.70, ptr noundef %170)
  br label %171

171:                                              ; preds = %166, %163
  %172 = load i32, ptr %13, align 4, !tbaa !4
  store i32 %172, ptr %6, align 4
  store i32 1, ptr %15, align 4
  br label %209

173:                                              ; preds = %160
  br label %174

174:                                              ; preds = %173
  %175 = load ptr, ptr %8, align 8, !tbaa !334
  %176 = getelementptr inbounds nuw %struct.DemuxThreadContext, ptr %175, i32 0, i32 1
  %177 = load ptr, ptr %176, align 8, !tbaa !336
  %178 = getelementptr inbounds nuw %struct.AVPacket, ptr %177, i32 0, i32 13
  %179 = load ptr, ptr %9, align 8, !tbaa !11
  %180 = getelementptr inbounds nuw %struct.DemuxStream, ptr %179, i32 0, i32 24
  %181 = load ptr, ptr %180, align 8, !tbaa !320
  %182 = getelementptr inbounds nuw %struct.AVBSFContext, ptr %181, i32 0, i32 6
  call void @llvm.memcpy.p0.p0.i64(ptr align 8 %178, ptr align 8 %182, i64 8, i1 false), !tbaa.struct !110
  %183 = load ptr, ptr %7, align 8, !tbaa !44
  %184 = load ptr, ptr %9, align 8, !tbaa !11
  %185 = load ptr, ptr %8, align 8, !tbaa !334
  %186 = getelementptr inbounds nuw %struct.DemuxThreadContext, ptr %185, i32 0, i32 1
  %187 = load ptr, ptr %186, align 8, !tbaa !336
  %188 = call i32 @do_send(ptr noundef %183, ptr noundef %184, ptr noundef %187, i32 noundef 0, ptr noundef @.str.71)
  store i32 %188, ptr %13, align 4, !tbaa !4
  %189 = load i32, ptr %13, align 4, !tbaa !4
  %190 = icmp slt i32 %189, 0
  br i1 %190, label %191, label %196

191:                                              ; preds = %174
  %192 = load ptr, ptr %8, align 8, !tbaa !334
  %193 = getelementptr inbounds nuw %struct.DemuxThreadContext, ptr %192, i32 0, i32 1
  %194 = load ptr, ptr %193, align 8, !tbaa !336
  call void @av_packet_unref(ptr noundef %194)
  %195 = load i32, ptr %13, align 4, !tbaa !4
  store i32 %195, ptr %6, align 4
  store i32 1, ptr %15, align 4
  br label %209

196:                                              ; preds = %174
  br label %148

197:                                              ; preds = %110
  %198 = load ptr, ptr %7, align 8, !tbaa !44
  %199 = load ptr, ptr %9, align 8, !tbaa !11
  %200 = load ptr, ptr %10, align 8, !tbaa !351
  %201 = load i32, ptr %11, align 4, !tbaa !4
  %202 = call i32 @do_send(ptr noundef %198, ptr noundef %199, ptr noundef %200, i32 noundef %201, ptr noundef @.str.72)
  store i32 %202, ptr %13, align 4, !tbaa !4
  %203 = load i32, ptr %13, align 4, !tbaa !4
  %204 = icmp slt i32 %203, 0
  br i1 %204, label %205, label %207

205:                                              ; preds = %197
  %206 = load i32, ptr %13, align 4, !tbaa !4
  store i32 %206, ptr %6, align 4
  store i32 1, ptr %15, align 4
  br label %209

207:                                              ; preds = %197
  br label %208

208:                                              ; preds = %207
  store i32 0, ptr %6, align 4
  store i32 1, ptr %15, align 4
  br label %209

209:                                              ; preds = %208, %205, %191, %171, %159, %141, %107
  call void @llvm.lifetime.end.p0(i64 4, ptr %13) #12
  call void @llvm.lifetime.end.p0(i64 8, ptr %12) #12
  %210 = load i32, ptr %6, align 4
  ret i32 %210
}