; Function Attrs: nounwind uwtable
define internal fastcc range(i32 -2147483648, 1) i32 @demux_send(ptr noundef %0, ptr noundef nonnull readonly captures(none) %1, ptr noundef %2, ptr noundef %3, i32 noundef %4) unnamed_addr #0 {
  %6 = alloca [64 x i8], align 1
  %7 = alloca [64 x i8], align 1
  %8 = getelementptr inbounds nuw i8, ptr %2, i64 336
  %9 = load ptr, ptr %8, align 8, !tbaa !264
  %10 = icmp ne ptr %9, null
  %11 = icmp ne ptr %3, null
  %or.cond = or i1 %11, %10
  br i1 %or.cond, label %13, label %12

12:                                               ; preds = %5
  tail call void (ptr, i32, ptr, ...) @av_log(ptr noundef null, i32 noundef 0, ptr noundef nonnull @.str.65, ptr noundef nonnull @.str.66, ptr noundef nonnull @.str.67, i32 noundef 581) #14
  tail call void @abort() #16
  unreachable

13:                                               ; preds = %5
  %14 = getelementptr inbounds nuw i8, ptr %0, i64 240
  %15 = load ptr, ptr %14, align 8, !tbaa !136
  %16 = icmp ne ptr %15, null
  %or.cond3 = and i1 %11, %16
  br i1 %or.cond3, label %17, label %.loopexit

17:                                               ; preds = %13
  %18 = getelementptr inbounds nuw i8, ptr %3, i64 8
  %19 = load i64, ptr %18, align 8, !tbaa !301
  %.not = icmp eq i64 %19, -9223372036854775808
  br i1 %.not, label %.loopexit, label %.preheader88

.preheader88:                                     ; preds = %17
  %20 = getelementptr inbounds nuw i8, ptr %0, i64 72
  %21 = load i32, ptr %20, align 8, !tbaa !58
  %.not7796 = icmp sgt i32 %21, 0
  br i1 %.not7796, label %.lr.ph, label %.loopexit

.lr.ph:                                           ; preds = %.preheader88
  %22 = getelementptr inbounds nuw i8, ptr %0, i64 64
  %23 = getelementptr inbounds nuw i8, ptr %3, i64 96
  br label %24

24:                                               ; preds = %.lr.ph, %44
  %25 = phi i32 [ %21, %.lr.ph ], [ %45, %44 ]
  %indvars.iv = phi i64 [ 0, %.lr.ph ], [ %indvars.iv.next, %44 ]
  %26 = load ptr, ptr %22, align 8, !tbaa !59
  %27 = getelementptr inbounds nuw ptr, ptr %26, i64 %indvars.iv
  %28 = load ptr, ptr %27, align 8, !tbaa !60
  %29 = getelementptr inbounds nuw i8, ptr %28, i64 152
  %30 = load i32, ptr %29, align 8, !tbaa !305
  %.not75 = icmp eq i32 %30, 0
  br i1 %.not75, label %31, label %44

31:                                               ; preds = %24
  %32 = getelementptr inbounds nuw i8, ptr %28, i64 160
  %33 = load i32, ptr %32, align 8, !tbaa !137
  %.not76 = icmp eq i32 %33, 0
  br i1 %.not76, label %44, label %34

34:                                               ; preds = %31
  %35 = load i64, ptr %18, align 8, !tbaa !301
  %36 = load ptr, ptr %14, align 8, !tbaa !136
  %37 = getelementptr inbounds nuw i8, ptr %36, i64 8
  store i64 %35, ptr %37, align 8, !tbaa !301
  %38 = getelementptr inbounds nuw i8, ptr %36, i64 96
  %39 = load i64, ptr %23, align 8
  store i64 %39, ptr %38, align 8
  %40 = load ptr, ptr %14, align 8, !tbaa !136
  %41 = getelementptr inbounds nuw i8, ptr %40, i64 80
  store ptr inttoptr (i64 1 to ptr), ptr %41, align 8, !tbaa !341
  %42 = tail call fastcc i32 @do_send(ptr noundef nonnull %0, ptr noundef nonnull %28, ptr noundef %40, i32 noundef 0, ptr noundef nonnull @.str.68)
  %43 = icmp slt i32 %42, 0
  br i1 %43, label %.thread84, label %._crit_edge

._crit_edge:                                      ; preds = %34
  %.pre = load i32, ptr %20, align 8, !tbaa !58
  br label %44

44:                                               ; preds = %._crit_edge, %31, %24
  %45 = phi i32 [ %.pre, %._crit_edge ], [ %25, %31 ], [ %25, %24 ]
  %indvars.iv.next = add nuw nsw i64 %indvars.iv, 1
  %46 = sext i32 %45 to i64
  %.not77 = icmp slt i64 %indvars.iv.next, %46
  br i1 %.not77, label %24, label %.loopexit.loopexit, !llvm.loop !342

.loopexit.loopexit:                               ; preds = %44
  %.pre103 = load ptr, ptr %8, align 8, !tbaa !264
  br label %.loopexit

.loopexit:                                        ; preds = %.loopexit.loopexit, %.preheader88, %17, %13
  %47 = phi ptr [ %.pre103, %.loopexit.loopexit ], [ %9, %.preheader88 ], [ %9, %17 ], [ %9, %13 ]
  %.not78 = icmp eq ptr %47, null
  br i1 %.not78, label %84, label %48

48:                                               ; preds = %.loopexit
  br i1 %11, label %49, label %.thread86

49:                                               ; preds = %48
  %50 = getelementptr inbounds nuw i8, ptr %3, i64 96
  %51 = getelementptr inbounds nuw i8, ptr %47, i64 40
  %52 = load i64, ptr %50, align 8
  %53 = load i64, ptr %51, align 8
  tail call void @av_packet_rescale_ts(ptr noundef nonnull %3, i64 %52, i64 %53) #14
  %54 = load ptr, ptr %8, align 8, !tbaa !264
  %55 = tail call i32 @av_bsf_send_packet(ptr noundef %54, ptr noundef nonnull %3) #14
  %56 = icmp slt i32 %55, 0
  br i1 %56, label %60, label %.preheader

.thread86:                                        ; preds = %48
  %57 = tail call i32 @av_bsf_send_packet(ptr noundef nonnull %47, ptr noundef null) #14
  %58 = icmp slt i32 %57, 0
  br i1 %58, label %.thread87, label %.preheader

.preheader:                                       ; preds = %49, %.thread86
  %59 = getelementptr inbounds nuw i8, ptr %1, i64 8
  br label %63

60:                                               ; preds = %49
  tail call void @av_packet_unref(ptr noundef nonnull %3) #14
  br label %.thread87

.thread87:                                        ; preds = %.thread86, %60
  %61 = phi i32 [ %55, %60 ], [ %57, %.thread86 ]
  call void @llvm.memset.p0.i64(ptr noundef nonnull align 1 dereferenceable(64) %6, i8 0, i64 64, i1 false)
  %62 = call i32 @av_strerror(i32 noundef %61, ptr noundef nonnull %6, i64 noundef 64) #14
  call void (ptr, i32, ptr, ...) @av_log(ptr noundef nonnull %2, i32 noundef 16, ptr noundef nonnull @.str.69, ptr noundef nonnull %6) #14
  br label %.thread84

63:                                               ; preds = %.preheader, %73
  %64 = load ptr, ptr %8, align 8, !tbaa !264
  %65 = load ptr, ptr %59, align 8, !tbaa !287
  %66 = tail call i32 @av_bsf_receive_packet(ptr noundef %64, ptr noundef %65) #14
  %67 = icmp eq i32 %66, -11
  br i1 %67, label %.thread84, label %68

68:                                               ; preds = %63
  %69 = icmp slt i32 %66, 0
  br i1 %69, label %70, label %73

70:                                               ; preds = %68
  %.not79 = icmp eq i32 %66, -541478725
  br i1 %.not79, label %.thread84, label %71

71:                                               ; preds = %70
  call void @llvm.memset.p0.i64(ptr noundef nonnull align 1 dereferenceable(64) %7, i8 0, i64 64, i1 false)
  %72 = call i32 @av_strerror(i32 noundef %66, ptr noundef nonnull %7, i64 noundef 64) #14
  call void (ptr, i32, ptr, ...) @av_log(ptr noundef nonnull %2, i32 noundef 16, ptr noundef nonnull @.str.70, ptr noundef nonnull %7) #14
  br label %.thread84

73:                                               ; preds = %68
  %74 = load ptr, ptr %59, align 8, !tbaa !287
  %75 = getelementptr inbounds nuw i8, ptr %74, i64 96
  %76 = load ptr, ptr %8, align 8, !tbaa !264
  %77 = getelementptr inbounds nuw i8, ptr %76, i64 48
  %78 = load i64, ptr %77, align 8
  store i64 %78, ptr %75, align 8
  %79 = load ptr, ptr %59, align 8, !tbaa !287
  %80 = tail call fastcc i32 @do_send(ptr noundef %0, ptr noundef nonnull %2, ptr noundef %79, i32 noundef 0, ptr noundef nonnull @.str.71)
  %81 = icmp slt i32 %80, 0
  br i1 %81, label %82, label %63

82:                                               ; preds = %73
  %83 = load ptr, ptr %59, align 8, !tbaa !287
  tail call void @av_packet_unref(ptr noundef %83) #14
  br label %.thread84

84:                                               ; preds = %.loopexit
  %85 = tail call fastcc i32 @do_send(ptr noundef nonnull %0, ptr noundef nonnull %2, ptr noundef %3, i32 noundef %4, ptr noundef nonnull @.str.72)
  br label %.thread84

.thread84:                                        ; preds = %34, %63, %84, %70, %71, %82, %.thread87
  %.3 = phi i32 [ %61, %.thread87 ], [ %80, %82 ], [ %66, %71 ], [ -541478725, %70 ], [ %85, %84 ], [ 0, %63 ], [ %42, %34 ]
  ret i32 %.3
}